target datalayout = "e-m:e-p270:32:32-p271:32:32-p272:64:64-i64:64-i128:128-f80:128-n8:16:32:64-S128"
target triple = "x86_64-unknown-linux-gnu"

; Function Attrs: mustprogress uwtable
define hidden noundef ptr @_Z3parP6tacticS0_S0_(ptr noundef %t1, ptr noundef %t2, ptr noundef %t3) #4 {
entry:
  %t1.addr = alloca ptr, align 8
  %t2.addr = alloca ptr, align 8
  %t3.addr = alloca ptr, align 8
  %ts = alloca [3 x ptr], align 16
  store ptr %t1, ptr %t1.addr, align 8
  store ptr %t2, ptr %t2.addr, align 8
  store ptr %t3, ptr %t3.addr, align 8
  %arrayinit.begin = getelementptr inbounds [3 x ptr], ptr %ts, i64 0, i64 0
  %0 = load ptr, ptr %t1.addr, align 8
  store ptr %0, ptr %arrayinit.begin, align 8
  %arrayinit.element = getelementptr inbounds ptr, ptr %arrayinit.begin, i64 1
  %1 = load ptr, ptr %t2.addr, align 8
  store ptr %1, ptr %arrayinit.element, align 8
  %arrayinit.element1 = getelementptr inbounds ptr, ptr %arrayinit.element, i64 1
  %2 = load ptr, ptr %t3.addr, align 8
  store ptr %2, ptr %arrayinit.element1, align 8
  %arraydecay = getelementptr inbounds [3 x ptr], ptr %ts, i64 0, i64 0
  %call = call noundef ptr @_Z3parjPKP6tactic(i32 noundef 3, ptr noundef %arraydecay)
  ret ptr %call
}