; Function Attrs: mustprogress uwtable
define hidden noundef ptr @_Z3parP6tacticS0_S0_(ptr noundef %t1, ptr noundef %t2, ptr noundef %t3) local_unnamed_addr #3 {
entry:
  %ts = alloca [3 x ptr], align 16
  store ptr %t1, ptr %ts, align 16
  %arrayinit.element = getelementptr inbounds i8, ptr %ts, i64 8
  store ptr %t2, ptr %arrayinit.element, align 8
  %arrayinit.element1 = getelementptr inbounds i8, ptr %ts, i64 16
  store ptr %t3, ptr %arrayinit.element1, align 16
  %call = call noundef ptr @_Z3parjPKP6tactic(i32 noundef 3, ptr noundef nonnull %ts)
  ret ptr %call
}